target datalayout = "e-m:e-p270:32:32-p271:32:32-p272:64:64-i64:64-i128:128-f80:128-n8:16:32:64-S128"
target triple = "x86_64-pc-linux-gnu"

%struct.Agobj_s = type { %struct.Agtag_s, ptr }
%struct.Agtag_s = type { i32, i64 }
%struct.Agraphinfo_t = type { %struct.Agrec_s, ptr, ptr, %struct.boxf, [4 x %struct.pointf_s], i8, i8, i8, i8, i32, double, double, i16, ptr, ptr, ptr, ptr, i32, ptr, ptr, ptr, ptr, i16, i16, i32, ptr, ptr, ptr, ptr, ptr, i32, ptr, ptr, %struct.nlist_t, ptr, ptr, i32, i32, i8, i8, i32, i32, i32, ptr, ptr, ptr, ptr, i8, i8, i8, i8, i8 }
%struct.Agrec_s = type { ptr, ptr }
%struct.boxf = type { %struct.pointf_s, %struct.pointf_s }
%struct.pointf_s = type { double, double }
%struct.nlist_t = type { ptr, i64 }
%struct.rank_t = type { i32, ptr, i32, ptr, double, double, double, double, i8, i8, i64, ptr }
%struct.Agnodeinfo_t = type { %struct.Agrec_s, ptr, ptr, %struct.pointf_s, double, double, %struct.boxf, double, double, double, double, double, ptr, ptr, ptr, i8, i8, i8, i8, i32, i32, i32, ptr, double, i8, i8, ptr, ptr, i8, i64, i8, i8, i8, ptr, ptr, %struct.elist, %struct.elist, %struct.elist, %struct.elist, %struct.elist, ptr, i32, ptr, i32, i32, double, %struct.elist, %struct.elist, %struct.elist, %struct.elist, ptr, i32, i32, i32, [1 x double] }
%struct.elist = type { ptr, i64 }

@G_margin = external global ptr, align 8
@.str.4 = private unnamed_addr constant [45 x i8] c"contain_nodes clust %s rank %d missing node\0A\00", align 1

; Function Attrs: nounwind uwtable
define internal void @contain_nodes(ptr noundef %0) #0 {
  %2 = alloca ptr, align 8
  %3 = alloca i32, align 4
  %4 = alloca i32, align 4
  %5 = alloca ptr, align 8
  %6 = alloca ptr, align 8
  %7 = alloca ptr, align 8
  store ptr %0, ptr %2, align 8, !tbaa !3
  call void @llvm.lifetime.start.p0(i64 4, ptr %3) #11
  call void @llvm.lifetime.start.p0(i64 4, ptr %4) #11
  call void @llvm.lifetime.start.p0(i64 8, ptr %5) #11
  call void @llvm.lifetime.start.p0(i64 8, ptr %6) #11
  call void @llvm.lifetime.start.p0(i64 8, ptr %7) #11
  %8 = load ptr, ptr %2, align 8, !tbaa !3
  %9 = load ptr, ptr @G_margin, align 8, !tbaa !75
  %10 = call i32 @late_int(ptr noundef %8, ptr noundef %9, i32 noundef 8, i32 noundef 0)
  store i32 %10, ptr %3, align 4, !tbaa !36
  %11 = load ptr, ptr %2, align 8, !tbaa !3
  call void @make_lrvn(ptr noundef %11)
  %12 = load ptr, ptr %2, align 8, !tbaa !3
  %13 = getelementptr inbounds nuw %struct.Agobj_s, ptr %12, i32 0, i32 1
  %14 = load ptr, ptr %13, align 8, !tbaa !8
  %15 = getelementptr inbounds nuw %struct.Agraphinfo_t, ptr %14, i32 0, i32 43
  %16 = load ptr, ptr %15, align 8, !tbaa !174
  store ptr %16, ptr %5, align 8, !tbaa !46
  %17 = load ptr, ptr %2, align 8, !tbaa !3
  %18 = getelementptr inbounds nuw %struct.Agobj_s, ptr %17, i32 0, i32 1
  %19 = load ptr, ptr %18, align 8, !tbaa !8
  %20 = getelementptr inbounds nuw %struct.Agraphinfo_t, ptr %19, i32 0, i32 44
  %21 = load ptr, ptr %20, align 8, !tbaa !175
  store ptr %21, ptr %6, align 8, !tbaa !46
  %22 = load ptr, ptr %2, align 8, !tbaa !3
  %23 = getelementptr inbounds nuw %struct.Agobj_s, ptr %22, i32 0, i32 1
  %24 = load ptr, ptr %23, align 8, !tbaa !8
  %25 = getelementptr inbounds nuw %struct.Agraphinfo_t, ptr %24, i32 0, i32 36
  %26 = load i32, ptr %25, align 8, !tbaa !40
  store i32 %26, ptr %4, align 4, !tbaa !36
  br label %27

27:                                               ; preds = %130, %1
  %28 = load i32, ptr %4, align 4, !tbaa !36
  %29 = load ptr, ptr %2, align 8, !tbaa !3
  %30 = getelementptr inbounds nuw %struct.Agobj_s, ptr %29, i32 0, i32 1
  %31 = load ptr, ptr %30, align 8, !tbaa !8
  %32 = getelementptr inbounds nuw %struct.Agraphinfo_t, ptr %31, i32 0, i32 37
  %33 = load i32, ptr %32, align 4, !tbaa !41
  %34 = icmp sle i32 %28, %33
  br i1 %34, label %35, label %133

35:                                               ; preds = %27
  %36 = load ptr, ptr %2, align 8, !tbaa !3
  %37 = getelementptr inbounds nuw %struct.Agobj_s, ptr %36, i32 0, i32 1
  %38 = load ptr, ptr %37, align 8, !tbaa !8
  %39 = getelementptr inbounds nuw %struct.Agraphinfo_t, ptr %38, i32 0, i32 28
  %40 = load ptr, ptr %39, align 8, !tbaa !37
  %41 = load i32, ptr %4, align 4, !tbaa !36
  %42 = sext i32 %41 to i64
  %43 = getelementptr inbounds %struct.rank_t, ptr %40, i64 %42
  %44 = getelementptr inbounds nuw %struct.rank_t, ptr %43, i32 0, i32 0
  %45 = load i32, ptr %44, align 8, !tbaa !42
  %46 = icmp eq i32 %45, 0
  br i1 %46, label %47, label %48

47:                                               ; preds = %35
  br label %130

48:                                               ; preds = %35
  %49 = load ptr, ptr %2, align 8, !tbaa !3
  %50 = getelementptr inbounds nuw %struct.Agobj_s, ptr %49, i32 0, i32 1
  %51 = load ptr, ptr %50, align 8, !tbaa !8
  %52 = getelementptr inbounds nuw %struct.Agraphinfo_t, ptr %51, i32 0, i32 28
  %53 = load ptr, ptr %52, align 8, !tbaa !37
  %54 = load i32, ptr %4, align 4, !tbaa !36
  %55 = sext i32 %54 to i64
  %56 = getelementptr inbounds %struct.rank_t, ptr %53, i64 %55
  %57 = getelementptr inbounds nuw %struct.rank_t, ptr %56, i32 0, i32 1
  %58 = load ptr, ptr %57, align 8, !tbaa !45
  %59 = getelementptr inbounds ptr, ptr %58, i64 0
  %60 = load ptr, ptr %59, align 8, !tbaa !46
  store ptr %60, ptr %7, align 8, !tbaa !46
  %61 = load ptr, ptr %7, align 8, !tbaa !46
  %62 = icmp eq ptr %61, null
  br i1 %62, label %63, label %67

63:                                               ; preds = %48
  %64 = load ptr, ptr %2, align 8, !tbaa !3
  %65 = call ptr @agnameof(ptr noundef %64)
  %66 = load i32, ptr %4, align 4, !tbaa !36
  call void (ptr, ...) @agerrorf(ptr noundef @.str.4, ptr noundef %65, i32 noundef %66)
  br label %130

67:                                               ; preds = %48
  %68 = load ptr, ptr %5, align 8, !tbaa !46
  %69 = load ptr, ptr %7, align 8, !tbaa !46
  %70 = load ptr, ptr %7, align 8, !tbaa !46
  %71 = getelementptr inbounds nuw %struct.Agobj_s, ptr %70, i32 0, i32 1
  %72 = load ptr, ptr %71, align 8, !tbaa !8
  %73 = getelementptr inbounds nuw %struct.Agnodeinfo_t, ptr %72, i32 0, i32 8
  %74 = load double, ptr %73, align 8, !tbaa !162
  %75 = load i32, ptr %3, align 4, !tbaa !36
  %76 = sitofp i32 %75 to double
  %77 = fadd double %74, %76
  %78 = load ptr, ptr %2, align 8, !tbaa !3
  %79 = getelementptr inbounds nuw %struct.Agobj_s, ptr %78, i32 0, i32 1
  %80 = load ptr, ptr %79, align 8, !tbaa !8
  %81 = getelementptr inbounds nuw %struct.Agraphinfo_t, ptr %80, i32 0, i32 4
  %82 = getelementptr inbounds [4 x %struct.pointf_s], ptr %81, i64 0, i64 3
  %83 = getelementptr inbounds nuw %struct.pointf_s, ptr %82, i32 0, i32 0
  %84 = load double, ptr %83, align 8, !tbaa !110
  %85 = fadd double %77, %84
  %86 = call ptr @make_aux_edge(ptr noundef %68, ptr noundef %69, double noundef %85, i32 noundef 0)
  %87 = load ptr, ptr %2, align 8, !tbaa !3
  %88 = getelementptr inbounds nuw %struct.Agobj_s, ptr %87, i32 0, i32 1
  %89 = load ptr, ptr %88, align 8, !tbaa !8
  %90 = getelementptr inbounds nuw %struct.Agraphinfo_t, ptr %89, i32 0, i32 28
  %91 = load ptr, ptr %90, align 8, !tbaa !37
  %92 = load i32, ptr %4, align 4, !tbaa !36
  %93 = sext i32 %92 to i64
  %94 = getelementptr inbounds %struct.rank_t, ptr %91, i64 %93
  %95 = getelementptr inbounds nuw %struct.rank_t, ptr %94, i32 0, i32 1
  %96 = load ptr, ptr %95, align 8, !tbaa !45
  %97 = load ptr, ptr %2, align 8, !tbaa !3
  %98 = getelementptr inbounds nuw %struct.Agobj_s, ptr %97, i32 0, i32 1
  %99 = load ptr, ptr %98, align 8, !tbaa !8
  %100 = getelementptr inbounds nuw %struct.Agraphinfo_t, ptr %99, i32 0, i32 28
  %101 = load ptr, ptr %100, align 8, !tbaa !37
  %102 = load i32, ptr %4, align 4, !tbaa !36
  %103 = sext i32 %102 to i64
  %104 = getelementptr inbounds %struct.rank_t, ptr %101, i64 %103
  %105 = getelementptr inbounds nuw %struct.rank_t, ptr %104, i32 0, i32 0
  %106 = load i32, ptr %105, align 8, !tbaa !42
  %107 = sub nsw i32 %106, 1
  %108 = sext i32 %107 to i64
  %109 = getelementptr inbounds ptr, ptr %96, i64 %108
  %110 = load ptr, ptr %109, align 8, !tbaa !46
  store ptr %110, ptr %7, align 8, !tbaa !46
  %111 = load ptr, ptr %7, align 8, !tbaa !46
  %112 = load ptr, ptr %6, align 8, !tbaa !46
  %113 = load ptr, ptr %7, align 8, !tbaa !46
  %114 = getelementptr inbounds nuw %struct.Agobj_s, ptr %113, i32 0, i32 1
  %115 = load ptr, ptr %114, align 8, !tbaa !8
  %116 = getelementptr inbounds nuw %struct.Agnodeinfo_t, ptr %115, i32 0, i32 9
  %117 = load double, ptr %116, align 8, !tbaa !158
  %118 = load i32, ptr %3, align 4, !tbaa !36
  %119 = sitofp i32 %118 to double
  %120 = fadd double %117, %119
  %121 = load ptr, ptr %2, align 8, !tbaa !3
  %122 = getelementptr inbounds nuw %struct.Agobj_s, ptr %121, i32 0, i32 1
  %123 = load ptr, ptr %122, align 8, !tbaa !8
  %124 = getelementptr inbounds nuw %struct.Agraphinfo_t, ptr %123, i32 0, i32 4
  %125 = getelementptr inbounds [4 x %struct.pointf_s], ptr %124, i64 0, i64 1
  %126 = getelementptr inbounds nuw %struct.pointf_s, ptr %125, i32 0, i32 0
  %127 = load double, ptr %126, align 8, !tbaa !110
  %128 = fadd double %120, %127
  %129 = call ptr @make_aux_edge(ptr noundef %111, ptr noundef %112, double noundef %128, i32 noundef 0)
  br label %130

130:                                              ; preds = %67, %63, %47
  %131 = load i32, ptr %4, align 4, !tbaa !36
  %132 = add nsw i32 %131, 1
  store i32 %132, ptr %4, align 4, !tbaa !36
  br label %27, !llvm.loop !187

133:                                              ; preds = %27
  call void @llvm.lifetime.end.p0(i64 8, ptr %7) #11
  call void @llvm.lifetime.end.p0(i64 8, ptr %6) #11
  call void @llvm.lifetime.end.p0(i64 8, ptr %5) #11
  call void @llvm.lifetime.end.p0(i64 4, ptr %4) #11
  call void @llvm.lifetime.end.p0(i64 4, ptr %3) #11
  ret void
}