; Function Attrs: nounwind uwtable
define internal fastcc void @contain_nodes(ptr noundef %0) unnamed_addr #0 {
  %2 = load ptr, ptr @G_margin, align 8, !tbaa !148
  %3 = tail call i32 @late_int(ptr noundef %0, ptr noundef %2, i32 noundef 8, i32 noundef 0) #15
  tail call fastcc void @make_lrvn(ptr noundef %0)
  %4 = getelementptr inbounds nuw i8, ptr %0, i64 16
  %5 = load ptr, ptr %4, align 8, !tbaa !3
  %6 = getelementptr inbounds nuw i8, ptr %5, i64 360
  %7 = load ptr, ptr %6, align 8, !tbaa !118
  %8 = getelementptr inbounds nuw i8, ptr %5, i64 368
  %9 = load ptr, ptr %8, align 8, !tbaa !119
  %10 = getelementptr inbounds nuw i8, ptr %5, i64 336
  %11 = load i32, ptr %10, align 8, !tbaa !35
  %12 = getelementptr inbounds nuw i8, ptr %5, i64 340
  %13 = load i32, ptr %12, align 4, !tbaa !36
  %.not29 = icmp sgt i32 %11, %13
  br i1 %.not29, label %._crit_edge, label %.lr.ph

.lr.ph:                                           ; preds = %1
  %14 = sitofp i32 %3 to double
  %15 = sext i32 %11 to i64
  br label %16

16:                                               ; preds = %.lr.ph, %61
  %indvars.iv = phi i64 [ %15, %.lr.ph ], [ %indvars.iv.next, %61 ]
  %17 = phi ptr [ %5, %.lr.ph ], [ %62, %61 ]
  %18 = getelementptr inbounds nuw i8, ptr %17, i64 264
  %19 = load ptr, ptr %18, align 8, !tbaa !37
  %20 = getelementptr inbounds %struct.rank_t, ptr %19, i64 %indvars.iv
  %21 = load i32, ptr %20, align 8, !tbaa !38
  %22 = icmp eq i32 %21, 0
  br i1 %22, label %61, label %23

23:                                               ; preds = %16
  %24 = getelementptr inbounds nuw i8, ptr %20, i64 8
  %25 = load ptr, ptr %24, align 8, !tbaa !41
  %26 = load ptr, ptr %25, align 8, !tbaa !42
  %27 = icmp eq ptr %26, null
  br i1 %27, label %28, label %31

28:                                               ; preds = %23
  %29 = tail call ptr @agnameof(ptr noundef nonnull %0) #15
  %30 = trunc nsw i64 %indvars.iv to i32
  tail call void (ptr, ...) @agerrorf(ptr noundef nonnull @.str.4, ptr noundef %29, i32 noundef %30) #15
  br label %61

31:                                               ; preds = %23
  %32 = getelementptr inbounds nuw i8, ptr %26, i64 16
  %33 = load ptr, ptr %32, align 8, !tbaa !3
  %34 = getelementptr inbounds nuw i8, ptr %33, i64 104
  %35 = load double, ptr %34, align 8, !tbaa !89
  %36 = fadd double %35, %14
  %37 = getelementptr inbounds nuw i8, ptr %17, i64 112
  %38 = load double, ptr %37, align 8, !tbaa !174
  %39 = fadd double %36, %38
  %40 = tail call ptr @make_aux_edge(ptr noundef %7, ptr noundef nonnull %26, double noundef %39, i32 noundef 0)
  %41 = load ptr, ptr %4, align 8, !tbaa !3
  %42 = getelementptr inbounds nuw i8, ptr %41, i64 264
  %43 = load ptr, ptr %42, align 8, !tbaa !37
  %44 = getelementptr inbounds %struct.rank_t, ptr %43, i64 %indvars.iv
  %45 = getelementptr inbounds nuw i8, ptr %44, i64 8
  %46 = load ptr, ptr %45, align 8, !tbaa !41
  %47 = load i32, ptr %44, align 8, !tbaa !38
  %48 = sext i32 %47 to i64
  %49 = getelementptr ptr, ptr %46, i64 %48
  %50 = getelementptr i8, ptr %49, i64 -8
  %51 = load ptr, ptr %50, align 8, !tbaa !42
  %52 = getelementptr inbounds nuw i8, ptr %51, i64 16
  %53 = load ptr, ptr %52, align 8, !tbaa !3
  %54 = getelementptr inbounds nuw i8, ptr %53, i64 112
  %55 = load double, ptr %54, align 8, !tbaa !82
  %56 = fadd double %55, %14
  %57 = getelementptr inbounds nuw i8, ptr %41, i64 80
  %58 = load double, ptr %57, align 8, !tbaa !174
  %59 = fadd double %56, %58
  %60 = tail call ptr @make_aux_edge(ptr noundef %51, ptr noundef %9, double noundef %59, i32 noundef 0)
  br label %61

61:                                               ; preds = %16, %31, %28
  %indvars.iv.next = add nsw i64 %indvars.iv, 1
  %62 = load ptr, ptr %4, align 8, !tbaa !3
  %63 = getelementptr inbounds nuw i8, ptr %62, i64 340
  %64 = load i32, ptr %63, align 4, !tbaa !36
  %65 = sext i32 %64 to i64
  %.not.not = icmp slt i64 %indvars.iv, %65
  br i1 %.not.not, label %16, label %._crit_edge, !llvm.loop !179

._crit_edge:                                      ; preds = %61, %1
  ret void
}